; Function Attrs: nofree nounwind uwtable
define void @Kit_DsdPrint2(ptr noundef captures(none) %0, ptr noundef readonly captures(none) %1) local_unnamed_addr #10 {
  %3 = getelementptr inbounds nuw i8, ptr %1, i64 6
  %4 = load i16, ptr %3, align 2, !tbaa !51
  %5 = and i16 %4, 1
  %.not = icmp eq i16 %5, 0
  br i1 %.not, label %7, label %6

6:                                                ; preds = %2
  %fputc = tail call i32 @fputc(i32 33, ptr %0)
  %.pre = load i16, ptr %3, align 2, !tbaa !51
  br label %7

7:                                                ; preds = %6, %2
  %8 = phi i16 [ %.pre, %6 ], [ %4, %2 ]
  %9 = lshr i16 %8, 1
  %10 = zext nneg i16 %9 to i32
  tail call void @Kit_DsdPrint2_rec(ptr noundef %0, ptr noundef nonnull %1, i32 noundef %10)
  ret void
}